target datalayout = "e-m:e-p270:32:32-p271:32:32-p272:64:64-i64:64-i128:128-f80:128-n8:16:32:64-S128"
target triple = "x86_64-pc-linux-gnu"

%struct.event = type { %struct.event_callback, %union.anon.0, i32, ptr, %union.anon.2, i16, i16, %struct.timeval }
%struct.event_callback = type { %struct.anon, i16, i8, i8, %union.anon, ptr }
%struct.anon = type { ptr, ptr }
%union.anon = type { ptr }
%union.anon.0 = type { %struct.anon.1 }
%struct.anon.1 = type { ptr, ptr }
%union.anon.2 = type { %struct.anon.3 }
%struct.anon.3 = type { %struct.anon.4, %struct.timeval }
%struct.anon.4 = type { ptr, ptr }
%struct.timeval = type { i64, i64 }
%struct.pmix_globals_t = type { i32, %struct.pmix_proc, %struct.pmix_value, %struct.pmix_value, ptr, i32, i32, ptr, i32, i32, i32, i32, i32, ptr, ptr, i32, %struct.pmix_events_t, i8, i8, %struct.timeval, %struct.pmix_list_t, %struct.pmix_pointer_array_t, i32, i32, %struct.pmix_hotel_t, i8, %struct.pmix_list_t, i8, i8, i8, i64, %struct.pmix_list_t, %struct.pmix_topology_t, %struct.pmix_cpuset_t, i8, i8, %struct.pmix_iof_flags_t, %struct.pmix_keyindex_t }
%struct.pmix_proc = type { [256 x i8], i32 }
%struct.pmix_value = type { i16, %union.anon.7 }
%union.anon.7 = type { %struct.pmix_envar_t }
%struct.pmix_envar_t = type { ptr, ptr, i8 }
%struct.pmix_events_t = type { %struct.pmix_object_t, i64, ptr, ptr, %struct.pmix_list_t, %struct.pmix_list_t, %struct.pmix_list_t, %struct.pmix_list_t }
%struct.pmix_object_t = type { %union.pthread_mutex_t, ptr, i32, %struct.pmix_tma }
%union.pthread_mutex_t = type { %struct.__pthread_mutex_s }
%struct.__pthread_mutex_s = type { i32, i32, i32, i32, i32, i16, i16, %struct.__pthread_internal_list }
%struct.__pthread_internal_list = type { ptr, ptr }
%struct.pmix_tma = type { ptr, ptr, ptr, ptr, ptr, ptr, ptr, ptr }
%struct.pmix_pointer_array_t = type { %struct.pmix_object_t, i32, i32, i32, i32, i32, ptr, ptr }
%struct.pmix_hotel_t = type { %struct.pmix_object_t, i32, ptr, %struct.timeval, ptr, ptr, ptr, ptr, i32 }
%struct.pmix_list_t = type { %struct.pmix_object_t, %struct.pmix_list_item_t, i64 }
%struct.pmix_list_item_t = type { %struct.pmix_object_t, ptr, ptr, i32 }
%struct.pmix_topology_t = type { ptr, ptr }
%struct.pmix_cpuset_t = type { ptr, ptr }
%struct.pmix_iof_flags_t = type { i8, i8, i8, i8, i8, i8, i8, ptr, ptr, i8, i8, i8, i8, i8, i8 }
%struct.pmix_keyindex_t = type { %struct.pmix_object_t, ptr, i32 }
%struct.pmix_class_t = type { ptr, ptr, ptr, ptr, i32, i32, ptr, ptr, i64 }
%struct.pmix_shift_caddy_t = type { %struct.pmix_object_t, %struct.event, %struct.pmix_lock_t, i32, ptr, i64, i32, %struct.pmix_name_t, ptr, ptr, ptr, i64, ptr, ptr, i64, ptr, i64, ptr, ptr, ptr, ptr, ptr, ptr, i8, %union.anon.9, ptr, i64 }
%struct.pmix_lock_t = type { i32, %struct.pmix_mutex_t, %union.pthread_cond_t, i8 }
%struct.pmix_mutex_t = type { %struct.pmix_object_t, %union.pthread_mutex_t }
%union.pthread_cond_t = type { %struct.__pthread_cond_s }
%struct.__pthread_cond_s = type { %union.__atomic_wide_counter, %union.__atomic_wide_counter, [2 x i32], [2 x i32], i32, i32, [2 x i32] }
%union.__atomic_wide_counter = type { i64 }
%struct.pmix_name_t = type { ptr, i32 }
%union.anon.9 = type { ptr }
%struct.pmix_info = type { [512 x i8], i32, %struct.pmix_value }

@pmix_show_help_enabled = global i8 0, align 1
@pmix_globals = external global %struct.pmix_globals_t, align 8
@pmix_class_init_epoch = external global i32, align 4
@.str.8 = private unnamed_addr constant [3 x i8] c"%s\00", align 1
@stderr = external global ptr, align 8
@pmix_shift_caddy_t_class = external global %struct.pmix_class_t, align 8
@.str.21 = private unnamed_addr constant [16 x i8] c"pmix.log.stderr\00", align 1
@.str.22 = private unnamed_addr constant [13 x i8] c"pmix.log.key\00", align 1
@.str.23 = private unnamed_addr constant [13 x i8] c"pmix.log.val\00", align 1

; Function Attrs: inlinehint nounwind uwtable
define internal void @pmix_obj_run_constructors(ptr noundef %0) #4 {
  %2 = alloca ptr, align 8
  %3 = alloca ptr, align 8
  store ptr %0, ptr %2, align 8, !tbaa !60
  call void @llvm.lifetime.start.p0(i64 8, ptr %3) #13
  %4 = load ptr, ptr %2, align 8, !tbaa !60
  %5 = getelementptr inbounds nuw %struct.pmix_object_t, ptr %4, i32 0, i32 1
  %6 = load ptr, ptr %5, align 8, !tbaa !54
  %7 = getelementptr inbounds nuw %struct.pmix_class_t, ptr %6, i32 0, i32 6
  %8 = load ptr, ptr %7, align 8, !tbaa !73
  store ptr %8, ptr %3, align 8, !tbaa !12
  br label %9

9:                                                ; preds = %13, %1
  %10 = load ptr, ptr %3, align 8, !tbaa !12
  %11 = load ptr, ptr %10, align 8, !tbaa !12
  %12 = icmp ne ptr null, %11
  br i1 %12, label %13, label %19

13:                                               ; preds = %9
  %14 = load ptr, ptr %3, align 8, !tbaa !12
  %15 = load ptr, ptr %14, align 8, !tbaa !12
  %16 = load ptr, ptr %2, align 8, !tbaa !60
  call void %15(ptr noundef %16)
  %17 = load ptr, ptr %3, align 8, !tbaa !12
  %18 = getelementptr inbounds nuw ptr, ptr %17, i32 1
  store ptr %18, ptr %3, align 8, !tbaa !12
  br label %9, !llvm.loop !74

19:                                               ; preds = %9
  call void @llvm.lifetime.end.p0(i64 8, ptr %3) #13
  ret void
}

; Function Attrs: inlinehint nounwind uwtable
define internal ptr @pmix_tma_malloc(ptr noundef %0, i64 noundef %1) #4 {
  %3 = alloca ptr, align 8
  %4 = alloca ptr, align 8
  %5 = alloca i64, align 8
  store ptr %0, ptr %4, align 8, !tbaa !62
  store i64 %1, ptr %5, align 8, !tbaa !8
  %6 = load ptr, ptr %4, align 8, !tbaa !62
  %7 = icmp ne ptr null, %6
  br i1 %7, label %8, label %15

8:                                                ; preds = %2
  %9 = load ptr, ptr %4, align 8, !tbaa !62
  %10 = getelementptr inbounds nuw %struct.pmix_tma, ptr %9, i32 0, i32 0
  %11 = load ptr, ptr %10, align 8, !tbaa !115
  %12 = load ptr, ptr %4, align 8, !tbaa !62
  %13 = load i64, ptr %5, align 8, !tbaa !8
  %14 = call ptr %11(ptr noundef %12, i64 noundef %13)
  store ptr %14, ptr %3, align 8
  br label %18

15:                                               ; preds = %2
  %16 = load i64, ptr %5, align 8, !tbaa !8
  %17 = call noalias ptr @malloc(i64 noundef %16) #17
  store ptr %17, ptr %3, align 8
  br label %18

18:                                               ; preds = %15, %8
  %19 = load ptr, ptr %3, align 8
  ret ptr %19
}

; Function Attrs: inlinehint nounwind uwtable
define internal void @pmix_atomic_wmb() #4 {
  fence release
  ret void
}

; Function Attrs: inlinehint nounwind uwtable
define internal ptr @pmix_obj_new_tma(ptr noundef %0, ptr noundef %1) #4 {
  %3 = alloca ptr, align 8
  %4 = alloca ptr, align 8
  %5 = alloca ptr, align 8
  store ptr %0, ptr %3, align 8, !tbaa !113
  store ptr %1, ptr %4, align 8, !tbaa !62
  call void @llvm.lifetime.start.p0(i64 8, ptr %5) #13
  %6 = load ptr, ptr %4, align 8, !tbaa !62
  %7 = load ptr, ptr %3, align 8, !tbaa !113
  %8 = getelementptr inbounds nuw %struct.pmix_class_t, ptr %7, i32 0, i32 8
  %9 = load i64, ptr %8, align 8, !tbaa !114
  %10 = call ptr @pmix_tma_malloc(ptr noundef %6, i64 noundef %9)
  store ptr %10, ptr %5, align 8, !tbaa !60
  %11 = load i32, ptr @pmix_class_init_epoch, align 4, !tbaa !10
  %12 = load ptr, ptr %3, align 8, !tbaa !113
  %13 = getelementptr inbounds nuw %struct.pmix_class_t, ptr %12, i32 0, i32 4
  %14 = load i32, ptr %13, align 8, !tbaa !52
  %15 = icmp ne i32 %11, %14
  br i1 %15, label %16, label %18

16:                                               ; preds = %2
  %17 = load ptr, ptr %3, align 8, !tbaa !113
  call void @pmix_class_initialize(ptr noundef %17)
  br label %18

18:                                               ; preds = %16, %2
  %19 = load ptr, ptr %5, align 8, !tbaa !60
  %20 = icmp ne ptr null, %19
  br i1 %20, label %21, label %60

21:                                               ; preds = %18
  %22 = load ptr, ptr %5, align 8, !tbaa !60
  %23 = getelementptr inbounds nuw %struct.pmix_object_t, ptr %22, i32 0, i32 0
  %24 = call i32 @pthread_mutex_init(ptr noundef %23, ptr noundef null) #13
  %25 = load ptr, ptr %3, align 8, !tbaa !113
  %26 = load ptr, ptr %5, align 8, !tbaa !60
  %27 = getelementptr inbounds nuw %struct.pmix_object_t, ptr %26, i32 0, i32 1
  store ptr %25, ptr %27, align 8, !tbaa !54
  %28 = load ptr, ptr %5, align 8, !tbaa !60
  %29 = getelementptr inbounds nuw %struct.pmix_object_t, ptr %28, i32 0, i32 2
  store i32 1, ptr %29, align 8, !tbaa !55
  %30 = load ptr, ptr %4, align 8, !tbaa !62
  %31 = icmp eq ptr null, %30
  br i1 %31, label %32, label %54

32:                                               ; preds = %21
  %33 = load ptr, ptr %5, align 8, !tbaa !60
  %34 = getelementptr inbounds nuw %struct.pmix_object_t, ptr %33, i32 0, i32 3
  %35 = getelementptr inbounds nuw %struct.pmix_tma, ptr %34, i32 0, i32 0
  store ptr null, ptr %35, align 8, !tbaa !64
  %36 = load ptr, ptr %5, align 8, !tbaa !60
  %37 = getelementptr inbounds nuw %struct.pmix_object_t, ptr %36, i32 0, i32 3
  %38 = getelementptr inbounds nuw %struct.pmix_tma, ptr %37, i32 0, i32 1
  store ptr null, ptr %38, align 8, !tbaa !65
  %39 = load ptr, ptr %5, align 8, !tbaa !60
  %40 = getelementptr inbounds nuw %struct.pmix_object_t, ptr %39, i32 0, i32 3
  %41 = getelementptr inbounds nuw %struct.pmix_tma, ptr %40, i32 0, i32 2
  store ptr null, ptr %41, align 8, !tbaa !66
  %42 = load ptr, ptr %5, align 8, !tbaa !60
  %43 = getelementptr inbounds nuw %struct.pmix_object_t, ptr %42, i32 0, i32 3
  %44 = getelementptr inbounds nuw %struct.pmix_tma, ptr %43, i32 0, i32 3
  store ptr null, ptr %44, align 8, !tbaa !67
  %45 = load ptr, ptr %5, align 8, !tbaa !60
  %46 = getelementptr inbounds nuw %struct.pmix_object_t, ptr %45, i32 0, i32 3
  %47 = getelementptr inbounds nuw %struct.pmix_tma, ptr %46, i32 0, i32 5
  store ptr null, ptr %47, align 8, !tbaa !69
  %48 = load ptr, ptr %5, align 8, !tbaa !60
  %49 = getelementptr inbounds nuw %struct.pmix_object_t, ptr %48, i32 0, i32 3
  %50 = getelementptr inbounds nuw %struct.pmix_tma, ptr %49, i32 0, i32 6
  store ptr null, ptr %50, align 8, !tbaa !70
  %51 = load ptr, ptr %5, align 8, !tbaa !60
  %52 = getelementptr inbounds nuw %struct.pmix_object_t, ptr %51, i32 0, i32 3
  %53 = getelementptr inbounds nuw %struct.pmix_tma, ptr %52, i32 0, i32 7
  store ptr null, ptr %53, align 8, !tbaa !71
  br label %58

54:                                               ; preds = %21
  %55 = load ptr, ptr %5, align 8, !tbaa !60
  %56 = getelementptr inbounds nuw %struct.pmix_object_t, ptr %55, i32 0, i32 3
  %57 = load ptr, ptr %4, align 8, !tbaa !62
  call void @llvm.memcpy.p0.p0.i64(ptr align 8 %56, ptr align 8 %57, i64 64, i1 false), !tbaa.struct !72
  br label %58

58:                                               ; preds = %54, %32
  %59 = load ptr, ptr %5, align 8, !tbaa !60
  call void @pmix_obj_run_constructors(ptr noundef %59)
  br label %60

60:                                               ; preds = %58, %18
  %61 = load ptr, ptr %5, align 8, !tbaa !60
  call void @llvm.lifetime.end.p0(i64 8, ptr %5) #13
  ret ptr %61
}

; Function Attrs: nounwind uwtable
define internal void @local_delivery(ptr noundef %0, ptr noundef %1, ptr noundef %2) #0 {
  %4 = alloca ptr, align 8
  %5 = alloca ptr, align 8
  %6 = alloca ptr, align 8
  %7 = alloca ptr, align 8
  %8 = alloca i32, align 4
  store ptr %0, ptr %4, align 8, !tbaa !3
  store ptr %1, ptr %5, align 8, !tbaa !3
  store ptr %2, ptr %6, align 8, !tbaa !3
  call void @llvm.lifetime.start.p0(i64 8, ptr %7) #13
  %9 = load i8, ptr @pmix_show_help_enabled, align 1, !tbaa !22, !range !23, !noundef !24
  %10 = trunc i8 %9 to i1
  br i1 %10, label %15, label %11

11:                                               ; preds = %3
  %12 = load ptr, ptr @stderr, align 8, !tbaa !90
  %13 = load ptr, ptr %6, align 8, !tbaa !3
  %14 = call i32 (ptr, ptr, ...) @fprintf(ptr noundef %12, ptr noundef @.str.8, ptr noundef %13) #13
  store i32 1, ptr %8, align 4
  br label %68

15:                                               ; preds = %3
  %16 = call ptr @pmix_obj_new_tma(ptr noundef @pmix_shift_caddy_t_class, ptr noundef null)
  store ptr %16, ptr %7, align 8, !tbaa !12
  %17 = load ptr, ptr %7, align 8, !tbaa !12
  %18 = getelementptr inbounds nuw %struct.pmix_shift_caddy_t, ptr %17, i32 0, i32 14
  store i64 1, ptr %18, align 8, !tbaa !95
  %19 = load ptr, ptr %7, align 8, !tbaa !12
  %20 = getelementptr inbounds nuw %struct.pmix_shift_caddy_t, ptr %19, i32 0, i32 14
  %21 = load i64, ptr %20, align 8, !tbaa !95
  %22 = call ptr @PMIx_Info_create(i64 noundef %21)
  %23 = load ptr, ptr %7, align 8, !tbaa !12
  %24 = getelementptr inbounds nuw %struct.pmix_shift_caddy_t, ptr %23, i32 0, i32 13
  store ptr %22, ptr %24, align 8, !tbaa !108
  %25 = load ptr, ptr %7, align 8, !tbaa !12
  %26 = getelementptr inbounds nuw %struct.pmix_shift_caddy_t, ptr %25, i32 0, i32 13
  %27 = load ptr, ptr %26, align 8, !tbaa !108
  %28 = getelementptr inbounds %struct.pmix_info, ptr %27, i64 0
  %29 = load ptr, ptr %6, align 8, !tbaa !3
  %30 = call i32 @PMIx_Info_load(ptr noundef %28, ptr noundef @.str.21, ptr noundef %29, i16 noundef zeroext 3)
  %31 = load ptr, ptr %7, align 8, !tbaa !12
  %32 = getelementptr inbounds nuw %struct.pmix_shift_caddy_t, ptr %31, i32 0, i32 16
  store i64 2, ptr %32, align 8, !tbaa !109
  %33 = load ptr, ptr %7, align 8, !tbaa !12
  %34 = getelementptr inbounds nuw %struct.pmix_shift_caddy_t, ptr %33, i32 0, i32 16
  %35 = load i64, ptr %34, align 8, !tbaa !109
  %36 = call ptr @PMIx_Info_create(i64 noundef %35)
  %37 = load ptr, ptr %7, align 8, !tbaa !12
  %38 = getelementptr inbounds nuw %struct.pmix_shift_caddy_t, ptr %37, i32 0, i32 15
  store ptr %36, ptr %38, align 8, !tbaa !110
  %39 = load ptr, ptr %7, align 8, !tbaa !12
  %40 = getelementptr inbounds nuw %struct.pmix_shift_caddy_t, ptr %39, i32 0, i32 15
  %41 = load ptr, ptr %40, align 8, !tbaa !110
  %42 = getelementptr inbounds %struct.pmix_info, ptr %41, i64 0
  %43 = load ptr, ptr %4, align 8, !tbaa !3
  %44 = call i32 @PMIx_Info_load(ptr noundef %42, ptr noundef @.str.22, ptr noundef %43, i16 noundef zeroext 3)
  %45 = load ptr, ptr %7, align 8, !tbaa !12
  %46 = getelementptr inbounds nuw %struct.pmix_shift_caddy_t, ptr %45, i32 0, i32 15
  %47 = load ptr, ptr %46, align 8, !tbaa !110
  %48 = getelementptr inbounds %struct.pmix_info, ptr %47, i64 1
  %49 = load ptr, ptr %5, align 8, !tbaa !3
  %50 = call i32 @PMIx_Info_load(ptr noundef %48, ptr noundef @.str.23, ptr noundef %49, i16 noundef zeroext 3)
  %51 = load ptr, ptr %7, align 8, !tbaa !12
  %52 = getelementptr inbounds nuw %struct.pmix_shift_caddy_t, ptr %51, i32 0, i32 24
  store ptr @show_help_cbfunc, ptr %52, align 8, !tbaa !93
  %53 = load ptr, ptr %7, align 8, !tbaa !12
  %54 = load ptr, ptr %7, align 8, !tbaa !12
  %55 = getelementptr inbounds nuw %struct.pmix_shift_caddy_t, ptr %54, i32 0, i32 25
  store ptr %53, ptr %55, align 8, !tbaa !111
  %56 = load ptr, ptr %7, align 8, !tbaa !12
  %57 = getelementptr inbounds nuw %struct.pmix_shift_caddy_t, ptr %56, i32 0, i32 8
  store ptr null, ptr %57, align 8, !tbaa !112
  br label %58

58:                                               ; preds = %15
  %59 = load ptr, ptr %7, align 8, !tbaa !12
  %60 = getelementptr inbounds nuw %struct.pmix_shift_caddy_t, ptr %59, i32 0, i32 1
  %61 = load ptr, ptr getelementptr inbounds nuw (%struct.pmix_globals_t, ptr @pmix_globals, i32 0, i32 13), align 8, !tbaa !25
  %62 = load ptr, ptr %7, align 8, !tbaa !12
  %63 = call i32 @pmix_event_assign(ptr noundef %60, ptr noundef %61, i32 noundef -1, i16 noundef signext 4, ptr noundef @pmix_log_local_op, ptr noundef %62)
  call void @pmix_atomic_wmb()
  %64 = load ptr, ptr %7, align 8, !tbaa !12
  %65 = getelementptr inbounds nuw %struct.pmix_shift_caddy_t, ptr %64, i32 0, i32 1
  call void @event_active(ptr noundef %65, i32 noundef 4, i16 noundef signext 1)
  br label %66

66:                                               ; preds = %58
  br label %67

67:                                               ; preds = %66
  store i32 0, ptr %8, align 4
  br label %68

68:                                               ; preds = %67, %11
  call void @llvm.lifetime.end.p0(i64 8, ptr %7) #13
  %69 = load i32, ptr %8, align 4
  switch i32 %69, label %71 [
    i32 0, label %70
    i32 1, label %70
  ]

70:                                               ; preds = %68, %68
  ret void

71:                                               ; preds = %68
  unreachable
}