; Function Attrs: nounwind uwtable
define internal fastcc void @local_delivery(ptr noundef %0, ptr noundef %1, ptr noundef %2) unnamed_addr #0 {
  %4 = load i8, ptr @pmix_show_help_enabled, align 1, !tbaa !77, !range !53, !noundef !54
  %5 = trunc nuw i8 %4 to i1
  br i1 %5, label %8, label %6

6:                                                ; preds = %3
  %7 = load ptr, ptr @stderr, align 8, !tbaa !78
  %fputs = tail call i32 @fputs(ptr %2, ptr %7) #21
  br label %43

8:                                                ; preds = %3
  %9 = load i64, ptr getelementptr inbounds nuw (i8, ptr @pmix_shift_caddy_t_class, i64 56), align 8, !tbaa !22
  %10 = tail call noalias noundef ptr @malloc(i64 noundef %9) #19
  %11 = load i32, ptr @pmix_class_init_epoch, align 4, !tbaa !24
  %12 = load i32, ptr getelementptr inbounds nuw (i8, ptr @pmix_shift_caddy_t_class, i64 32), align 8, !tbaa !25
  %.not.i = icmp eq i32 %11, %12
  br i1 %.not.i, label %14, label %13

13:                                               ; preds = %8
  tail call void @pmix_class_initialize(ptr noundef nonnull @pmix_shift_caddy_t_class) #18
  br label %14

14:                                               ; preds = %13, %8
  %.not22.i = icmp eq ptr %10, null
  br i1 %.not22.i, label %pmix_obj_new_tma.exit, label %15

15:                                               ; preds = %14
  %16 = tail call i32 @pthread_mutex_init(ptr noundef nonnull %10, ptr noundef null) #18
  %17 = getelementptr inbounds nuw i8, ptr %10, i64 40
  store ptr @pmix_shift_caddy_t_class, ptr %17, align 8, !tbaa !26
  %18 = getelementptr inbounds nuw i8, ptr %10, i64 48
  store i32 1, ptr %18, align 8, !tbaa !27
  %19 = getelementptr inbounds nuw i8, ptr %10, i64 56
  %20 = getelementptr inbounds nuw i8, ptr %10, i64 96
  tail call void @llvm.memset.p0.i64(ptr noundef nonnull align 8 dereferenceable(32) %19, i8 0, i64 32, i1 false)
  tail call void @llvm.memset.p0.i64(ptr noundef nonnull align 8 dereferenceable(24) %20, i8 0, i64 24, i1 false)
  %21 = load ptr, ptr getelementptr inbounds nuw (i8, ptr @pmix_shift_caddy_t_class, i64 40), align 8, !tbaa !28
  %22 = load ptr, ptr %21, align 8, !tbaa !29
  %.not6.i.i = icmp eq ptr %22, null
  br i1 %.not6.i.i, label %pmix_obj_new_tma.exit, label %.lr.ph.i.i

.lr.ph.i.i:                                       ; preds = %15, %.lr.ph.i.i
  %23 = phi ptr [ %25, %.lr.ph.i.i ], [ %22, %15 ]
  %.07.i.i = phi ptr [ %24, %.lr.ph.i.i ], [ %21, %15 ]
  tail call void %23(ptr noundef nonnull %10) #18
  %24 = getelementptr inbounds nuw i8, ptr %.07.i.i, i64 8
  %25 = load ptr, ptr %24, align 8, !tbaa !29
  %.not.i.i = icmp eq ptr %25, null
  br i1 %.not.i.i, label %pmix_obj_new_tma.exit, label %.lr.ph.i.i, !llvm.loop !30

pmix_obj_new_tma.exit:                            ; preds = %.lr.ph.i.i, %14, %15
  %26 = getelementptr inbounds nuw i8, ptr %10, i64 568
  store i64 1, ptr %26, align 8, !tbaa !80
  %27 = tail call ptr @PMIx_Info_create(i64 noundef 1) #18
  %28 = getelementptr inbounds nuw i8, ptr %10, i64 560
  store ptr %27, ptr %28, align 8, !tbaa !93
  %29 = tail call i32 @PMIx_Info_load(ptr noundef %27, ptr noundef nonnull @.str.21, ptr noundef %2, i16 noundef zeroext 3) #18
  %30 = getelementptr inbounds nuw i8, ptr %10, i64 584
  store i64 2, ptr %30, align 8, !tbaa !94
  %31 = tail call ptr @PMIx_Info_create(i64 noundef 2) #18
  %32 = getelementptr inbounds nuw i8, ptr %10, i64 576
  store ptr %31, ptr %32, align 8, !tbaa !95
  %33 = tail call i32 @PMIx_Info_load(ptr noundef %31, ptr noundef nonnull @.str.22, ptr noundef %0, i16 noundef zeroext 3) #18
  %34 = load ptr, ptr %32, align 8, !tbaa !95
  %35 = getelementptr inbounds nuw i8, ptr %34, i64 552
  %36 = tail call i32 @PMIx_Info_load(ptr noundef nonnull %35, ptr noundef nonnull @.str.23, ptr noundef %1, i16 noundef zeroext 3) #18
  %37 = getelementptr inbounds nuw i8, ptr %10, i64 648
  store ptr @show_help_cbfunc, ptr %37, align 8, !tbaa !70
  %38 = getelementptr inbounds nuw i8, ptr %10, i64 656
  store ptr %10, ptr %38, align 8, !tbaa !96
  %39 = getelementptr inbounds nuw i8, ptr %10, i64 520
  store ptr null, ptr %39, align 8, !tbaa !97
  %40 = getelementptr inbounds nuw i8, ptr %10, i64 120
  %41 = load ptr, ptr getelementptr inbounds nuw (i8, ptr @pmix_globals, i64 376), align 8, !tbaa !33
  %42 = tail call i32 @pmix_event_assign(ptr noundef nonnull %40, ptr noundef %41, i32 noundef -1, i16 noundef signext 4, ptr noundef nonnull @pmix_log_local_op, ptr noundef %10) #18
  fence release
  tail call void @event_active(ptr noundef nonnull %40, i32 noundef 4, i16 noundef signext 1) #18
  br label %43

43:                                               ; preds = %pmix_obj_new_tma.exit, %6
  ret void
}